; Function Attrs: nounwind uwtable
define internal range(i32 0, 2) i32 @test_msg_check_transaction_id_bad() #0 {
  %1 = alloca ptr, align 8
  call void @llvm.lifetime.start.p0(i64 8, ptr nonnull %1) #7
  %2 = tail call fastcc ptr @set_up(ptr noundef nonnull @.str.70)
  store ptr %2, ptr %1, align 8, !tbaa !36
  %3 = icmp eq ptr %2, null
  br i1 %3, label %12, label %4

4:                                                ; preds = %0
  call fastcc void @setup_check_update(ptr noundef %1, i32 noundef 0, ptr noundef nonnull @allow_unprotected, i32 noundef 1, ptr noundef nonnull @rand_data, ptr noundef null)
  %5 = load ptr, ptr %1, align 8, !tbaa !36
  %.not = icmp eq ptr %5, null
  br i1 %.not, label %12, label %6

6:                                                ; preds = %4
  %7 = tail call fastcc i32 @execute_msg_check_test(ptr noundef %5)
  %8 = getelementptr inbounds nuw i8, ptr %5, i64 24
  %9 = load ptr, ptr %8, align 8, !tbaa !27
  tail call void @OSSL_CMP_MSG_free(ptr noundef %9) #7
  %10 = getelementptr inbounds nuw i8, ptr %5, i64 16
  %11 = load ptr, ptr %10, align 8, !tbaa !28
  tail call void @OSSL_CMP_CTX_free(ptr noundef %11) #7
  tail call void @CRYPTO_free(ptr noundef nonnull %5, ptr noundef nonnull @.str.14, i32 noundef 47) #7
  br label %12

12:                                               ; preds = %4, %6, %0
  %.02 = phi i32 [ 0, %0 ], [ %7, %6 ], [ 0, %4 ]
  call void @llvm.lifetime.end.p0(i64 8, ptr nonnull %1) #7
  ret i32 %.02
}